target datalayout = "e-m:e-p270:32:32-p271:32:32-p272:64:64-i64:64-i128:128-f80:128-n8:16:32:64-S128"
target triple = "x86_64-pc-linux-gnu"

%struct.Gia_Man_t_ = type { ptr, ptr, i32, i32, i32, i32, ptr, ptr, i32, i32, i32, ptr, ptr, %struct.Vec_Int_t_, %struct.Vec_Int_t_, i32, i32, i32, %struct.Vec_Int_t_, ptr, ptr, ptr, i32, i32, i32, i32, ptr, ptr, ptr, ptr, ptr, i32, i32, ptr, i32, ptr, ptr, ptr, ptr, ptr, ptr, ptr, ptr, ptr, ptr, ptr, ptr, ptr, ptr, ptr, ptr, ptr, ptr, %struct.Vec_Int_t_, %struct.Vec_Int_t_, ptr, ptr, ptr, ptr, ptr, ptr, ptr, ptr, ptr, ptr, ptr, ptr, ptr, ptr, ptr, ptr, ptr, ptr, ptr, ptr, ptr, i32, float, float, ptr, ptr, i32, ptr, ptr, ptr, ptr, ptr, ptr, ptr, ptr, ptr, ptr, ptr, ptr, ptr, ptr, ptr, i64, i64, ptr, ptr, i32, i32, i32, i32, i32, i32, i32, i32, i32, i32, i32, i32, ptr, ptr, ptr, ptr, ptr, ptr, ptr, ptr, i32, i32, i32, ptr, i32, i32, ptr, ptr, ptr, ptr, ptr, ptr, i32, i32, ptr, %struct.Vec_Int_t_, %struct.Vec_Int_t_, %struct.Vec_Int_t_, ptr, ptr, ptr, i32, i32, i32, i32, ptr, ptr, ptr, ptr, ptr }
%struct.Vec_Int_t_ = type { i32, i32, ptr }

; Function Attrs: inlinehint nounwind uwtable
define internal i32 @Abc_Lit2Var(i32 noundef %0) #1 {
  %2 = alloca i32, align 4
  store i32 %0, ptr %2, align 4, !tbaa !8
  %3 = load i32, ptr %2, align 4, !tbaa !8
  %4 = ashr i32 %3, 1
  ret i32 %4
}

; Function Attrs: inlinehint nounwind uwtable
define internal i32 @Vec_IntCap(ptr noundef %0) #1 {
  %2 = alloca ptr, align 8
  store ptr %0, ptr %2, align 8, !tbaa !35
  %3 = load ptr, ptr %2, align 8, !tbaa !35
  %4 = getelementptr inbounds nuw %struct.Vec_Int_t_, ptr %3, i32 0, i32 0
  %5 = load i32, ptr %4, align 8, !tbaa !44
  ret i32 %5
}

; Function Attrs: inlinehint nounwind uwtable
define internal i32 @Abc_Var2Lit(i32 noundef %0, i32 noundef %1) #1 {
  %3 = alloca i32, align 4
  %4 = alloca i32, align 4
  store i32 %0, ptr %3, align 4, !tbaa !8
  store i32 %1, ptr %4, align 4, !tbaa !8
  %5 = load i32, ptr %3, align 4, !tbaa !8
  %6 = load i32, ptr %3, align 4, !tbaa !8
  %7 = add nsw i32 %5, %6
  %8 = load i32, ptr %4, align 4, !tbaa !8
  %9 = add nsw i32 %7, %8
  ret i32 %9
}

; Function Attrs: inlinehint nounwind uwtable
define internal i32 @Abc_LitIsCompl(i32 noundef %0) #1 {
  %2 = alloca i32, align 4
  store i32 %0, ptr %2, align 4, !tbaa !8
  %3 = load i32, ptr %2, align 4, !tbaa !8
  %4 = and i32 %3, 1
  ret i32 %4
}

; Function Attrs: inlinehint nounwind uwtable
define internal i32 @Gia_ManAndNum(ptr noundef %0) #1 {
  %2 = alloca ptr, align 8
  store ptr %0, ptr %2, align 8, !tbaa !3
  %3 = load ptr, ptr %2, align 8, !tbaa !3
  %4 = getelementptr inbounds nuw %struct.Gia_Man_t_, ptr %3, i32 0, i32 4
  %5 = load i32, ptr %4, align 8, !tbaa !41
  %6 = load ptr, ptr %2, align 8, !tbaa !3
  %7 = getelementptr inbounds nuw %struct.Gia_Man_t_, ptr %6, i32 0, i32 11
  %8 = load ptr, ptr %7, align 8, !tbaa !42
  %9 = call i32 @Vec_IntSize(ptr noundef %8)
  %10 = sub nsw i32 %5, %9
  %11 = load ptr, ptr %2, align 8, !tbaa !3
  %12 = getelementptr inbounds nuw %struct.Gia_Man_t_, ptr %11, i32 0, i32 12
  %13 = load ptr, ptr %12, align 8, !tbaa !43
  %14 = call i32 @Vec_IntSize(ptr noundef %13)
  %15 = sub nsw i32 %10, %14
  %16 = sub nsw i32 %15, 1
  ret i32 %16
}

; Function Attrs: inlinehint nounwind uwtable
define internal i32 @Vec_IntSize(ptr noundef %0) #1 {
  %2 = alloca ptr, align 8
  store ptr %0, ptr %2, align 8, !tbaa !35
  %3 = load ptr, ptr %2, align 8, !tbaa !35
  %4 = getelementptr inbounds nuw %struct.Vec_Int_t_, ptr %3, i32 0, i32 1
  %5 = load i32, ptr %4, align 4, !tbaa !38
  ret i32 %5
}

; Function Attrs: inlinehint nounwind uwtable
define internal i32 @Abc_LitNot(i32 noundef %0) #1 {
  %2 = alloca i32, align 4
  store i32 %0, ptr %2, align 4, !tbaa !8
  %3 = load i32, ptr %2, align 4, !tbaa !8
  %4 = xor i32 %3, 1
  ret i32 %4
}

; Function Attrs: nounwind uwtable
define i32 @Gia_ManHashXorReal(ptr noundef %0, i32 noundef %1, i32 noundef %2) #0 {
  %4 = alloca i32, align 4
  %5 = alloca ptr, align 8
  %6 = alloca i32, align 4
  %7 = alloca i32, align 4
  %8 = alloca i32, align 4
  %9 = alloca i32, align 4
  %10 = alloca ptr, align 8
  %11 = alloca i32, align 4
  store ptr %0, ptr %5, align 8, !tbaa !3
  store i32 %1, ptr %6, align 4, !tbaa !8
  store i32 %2, ptr %7, align 4, !tbaa !8
  call void @llvm.lifetime.start.p0(i64 4, ptr %8) #12
  store i32 0, ptr %8, align 4, !tbaa !8
  %12 = load i32, ptr %6, align 4, !tbaa !8
  %13 = icmp slt i32 %12, 2
  br i1 %13, label %14, label %24

14:                                               ; preds = %3
  %15 = load i32, ptr %6, align 4, !tbaa !8
  %16 = icmp ne i32 %15, 0
  br i1 %16, label %17, label %20

17:                                               ; preds = %14
  %18 = load i32, ptr %7, align 4, !tbaa !8
  %19 = call i32 @Abc_LitNot(i32 noundef %18)
  br label %22

20:                                               ; preds = %14
  %21 = load i32, ptr %7, align 4, !tbaa !8
  br label %22

22:                                               ; preds = %20, %17
  %23 = phi i32 [ %19, %17 ], [ %21, %20 ]
  store i32 %23, ptr %4, align 4
  store i32 1, ptr %9, align 4
  br label %150

24:                                               ; preds = %3
  %25 = load i32, ptr %7, align 4, !tbaa !8
  %26 = icmp slt i32 %25, 2
  br i1 %26, label %27, label %37

27:                                               ; preds = %24
  %28 = load i32, ptr %7, align 4, !tbaa !8
  %29 = icmp ne i32 %28, 0
  br i1 %29, label %30, label %33

30:                                               ; preds = %27
  %31 = load i32, ptr %6, align 4, !tbaa !8
  %32 = call i32 @Abc_LitNot(i32 noundef %31)
  br label %35

33:                                               ; preds = %27
  %34 = load i32, ptr %6, align 4, !tbaa !8
  br label %35

35:                                               ; preds = %33, %30
  %36 = phi i32 [ %32, %30 ], [ %34, %33 ]
  store i32 %36, ptr %4, align 4
  store i32 1, ptr %9, align 4
  br label %150

37:                                               ; preds = %24
  %38 = load i32, ptr %6, align 4, !tbaa !8
  %39 = load i32, ptr %7, align 4, !tbaa !8
  %40 = icmp eq i32 %38, %39
  br i1 %40, label %41, label %42

41:                                               ; preds = %37
  store i32 0, ptr %4, align 4
  store i32 1, ptr %9, align 4
  br label %150

42:                                               ; preds = %37
  %43 = load i32, ptr %6, align 4, !tbaa !8
  %44 = load i32, ptr %7, align 4, !tbaa !8
  %45 = call i32 @Abc_LitNot(i32 noundef %44)
  %46 = icmp eq i32 %43, %45
  br i1 %46, label %47, label %48

47:                                               ; preds = %42
  store i32 1, ptr %4, align 4
  store i32 1, ptr %9, align 4
  br label %150

48:                                               ; preds = %42
  %49 = load ptr, ptr %5, align 8, !tbaa !3
  %50 = getelementptr inbounds nuw %struct.Gia_Man_t_, ptr %49, i32 0, i32 4
  %51 = load i32, ptr %50, align 8, !tbaa !41
  %52 = and i32 %51, 255
  %53 = icmp eq i32 %52, 0
  br i1 %53, label %54, label %64

54:                                               ; preds = %48
  %55 = load ptr, ptr %5, align 8, !tbaa !3
  %56 = getelementptr inbounds nuw %struct.Gia_Man_t_, ptr %55, i32 0, i32 14
  %57 = call i32 @Vec_IntSize(ptr noundef %56)
  %58 = mul nsw i32 2, %57
  %59 = load ptr, ptr %5, align 8, !tbaa !3
  %60 = call i32 @Gia_ManAndNum(ptr noundef %59)
  %61 = icmp slt i32 %58, %60
  br i1 %61, label %62, label %64

62:                                               ; preds = %54
  %63 = load ptr, ptr %5, align 8, !tbaa !3
  call void @Gia_ManHashResize(ptr noundef %63)
  br label %64

64:                                               ; preds = %62, %54, %48
  %65 = load i32, ptr %6, align 4, !tbaa !8
  %66 = load i32, ptr %7, align 4, !tbaa !8
  %67 = icmp slt i32 %65, %66
  br i1 %67, label %68, label %78

68:                                               ; preds = %64
  %69 = load i32, ptr %7, align 4, !tbaa !8
  %70 = load i32, ptr %6, align 4, !tbaa !8
  %71 = xor i32 %70, %69
  store i32 %71, ptr %6, align 4, !tbaa !8
  %72 = load i32, ptr %6, align 4, !tbaa !8
  %73 = load i32, ptr %7, align 4, !tbaa !8
  %74 = xor i32 %73, %72
  store i32 %74, ptr %7, align 4, !tbaa !8
  %75 = load i32, ptr %7, align 4, !tbaa !8
  %76 = load i32, ptr %6, align 4, !tbaa !8
  %77 = xor i32 %76, %75
  store i32 %77, ptr %6, align 4, !tbaa !8
  br label %78

78:                                               ; preds = %68, %64
  %79 = load i32, ptr %6, align 4, !tbaa !8
  %80 = call i32 @Abc_LitIsCompl(i32 noundef %79)
  %81 = icmp ne i32 %80, 0
  br i1 %81, label %82, label %87

82:                                               ; preds = %78
  %83 = load i32, ptr %6, align 4, !tbaa !8
  %84 = call i32 @Abc_LitNot(i32 noundef %83)
  store i32 %84, ptr %6, align 4, !tbaa !8
  %85 = load i32, ptr %8, align 4, !tbaa !8
  %86 = xor i32 %85, 1
  store i32 %86, ptr %8, align 4, !tbaa !8
  br label %87

87:                                               ; preds = %82, %78
  %88 = load i32, ptr %7, align 4, !tbaa !8
  %89 = call i32 @Abc_LitIsCompl(i32 noundef %88)
  %90 = icmp ne i32 %89, 0
  br i1 %90, label %91, label %96

91:                                               ; preds = %87
  %92 = load i32, ptr %7, align 4, !tbaa !8
  %93 = call i32 @Abc_LitNot(i32 noundef %92)
  store i32 %93, ptr %7, align 4, !tbaa !8
  %94 = load i32, ptr %8, align 4, !tbaa !8
  %95 = xor i32 %94, 1
  store i32 %95, ptr %8, align 4, !tbaa !8
  br label %96

96:                                               ; preds = %91, %87
  call void @llvm.lifetime.start.p0(i64 8, ptr %10) #12
  %97 = load ptr, ptr %5, align 8, !tbaa !3
  %98 = load i32, ptr %6, align 4, !tbaa !8
  %99 = load i32, ptr %7, align 4, !tbaa !8
  %100 = call ptr @Gia_ManHashFind(ptr noundef %97, i32 noundef %98, i32 noundef %99, i32 noundef -1)
  store ptr %100, ptr %10, align 8, !tbaa !10
  %101 = load ptr, ptr %10, align 8, !tbaa !10
  %102 = load i32, ptr %101, align 4, !tbaa !8
  %103 = icmp ne i32 %102, 0
  br i1 %103, label %104, label %113

104:                                              ; preds = %96
  %105 = load ptr, ptr %5, align 8, !tbaa !3
  %106 = getelementptr inbounds nuw %struct.Gia_Man_t_, ptr %105, i32 0, i32 97
  %107 = load i64, ptr %106, align 8, !tbaa !51
  %108 = add i64 %107, 1
  store i64 %108, ptr %106, align 8, !tbaa !51
  %109 = load ptr, ptr %10, align 8, !tbaa !10
  %110 = load i32, ptr %109, align 4, !tbaa !8
  %111 = load i32, ptr %8, align 4, !tbaa !8
  %112 = call i32 @Abc_Var2Lit(i32 noundef %110, i32 noundef %111)
  store i32 %112, ptr %4, align 4
  store i32 1, ptr %9, align 4
  br label %149

113:                                              ; preds = %96
  %114 = load ptr, ptr %5, align 8, !tbaa !3
  %115 = getelementptr inbounds nuw %struct.Gia_Man_t_, ptr %114, i32 0, i32 98
  %116 = load i64, ptr %115, align 8, !tbaa !52
  %117 = add i64 %116, 1
  store i64 %117, ptr %115, align 8, !tbaa !52
  %118 = load ptr, ptr %5, align 8, !tbaa !3
  %119 = getelementptr inbounds nuw %struct.Gia_Man_t_, ptr %118, i32 0, i32 13
  %120 = call i32 @Vec_IntSize(ptr noundef %119)
  %121 = load ptr, ptr %5, align 8, !tbaa !3
  %122 = getelementptr inbounds nuw %struct.Gia_Man_t_, ptr %121, i32 0, i32 13
  %123 = call i32 @Vec_IntCap(ptr noundef %122)
  %124 = icmp slt i32 %120, %123
  br i1 %124, label %125, label %132

125:                                              ; preds = %113
  %126 = load ptr, ptr %5, align 8, !tbaa !3
  %127 = load i32, ptr %6, align 4, !tbaa !8
  %128 = load i32, ptr %7, align 4, !tbaa !8
  %129 = call i32 @Gia_ManAppendXorReal(ptr noundef %126, i32 noundef %127, i32 noundef %128)
  %130 = call i32 @Abc_Lit2Var(i32 noundef %129)
  %131 = load ptr, ptr %10, align 8, !tbaa !10
  store i32 %130, ptr %131, align 4, !tbaa !8
  br label %144

132:                                              ; preds = %113
  call void @llvm.lifetime.start.p0(i64 4, ptr %11) #12
  %133 = load ptr, ptr %5, align 8, !tbaa !3
  %134 = load i32, ptr %6, align 4, !tbaa !8
  %135 = load i32, ptr %7, align 4, !tbaa !8
  %136 = call i32 @Gia_ManAppendXorReal(ptr noundef %133, i32 noundef %134, i32 noundef %135)
  store i32 %136, ptr %11, align 4, !tbaa !8
  %137 = load ptr, ptr %5, align 8, !tbaa !3
  %138 = load i32, ptr %6, align 4, !tbaa !8
  %139 = load i32, ptr %7, align 4, !tbaa !8
  %140 = call ptr @Gia_ManHashFind(ptr noundef %137, i32 noundef %138, i32 noundef %139, i32 noundef -1)
  store ptr %140, ptr %10, align 8, !tbaa !10
  %141 = load i32, ptr %11, align 4, !tbaa !8
  %142 = call i32 @Abc_Lit2Var(i32 noundef %141)
  %143 = load ptr, ptr %10, align 8, !tbaa !10
  store i32 %142, ptr %143, align 4, !tbaa !8
  call void @llvm.lifetime.end.p0(i64 4, ptr %11) #12
  br label %144

144:                                              ; preds = %132, %125
  %145 = load ptr, ptr %10, align 8, !tbaa !10
  %146 = load i32, ptr %145, align 4, !tbaa !8
  %147 = load i32, ptr %8, align 4, !tbaa !8
  %148 = call i32 @Abc_Var2Lit(i32 noundef %146, i32 noundef %147)
  store i32 %148, ptr %4, align 4
  store i32 1, ptr %9, align 4
  br label %149

149:                                              ; preds = %144, %104
  call void @llvm.lifetime.end.p0(i64 8, ptr %10) #12
  br label %150

150:                                              ; preds = %149, %47, %41, %35, %22
  call void @llvm.lifetime.end.p0(i64 4, ptr %8) #12
  %151 = load i32, ptr %4, align 4
  ret i32 %151
}