; Function Attrs: nounwind uwtable
define i32 @Gia_ManHashXorReal(ptr noundef captures(none) %0, i32 noundef %1, i32 noundef %2) local_unnamed_addr #2 {
  %4 = icmp slt i32 %1, 2
  br i1 %4, label %5, label %7

5:                                                ; preds = %3
  %.not68 = icmp ne i32 %1, 0
  %6 = zext i1 %.not68 to i32
  %spec.select76 = xor i32 %2, %6
  br label %103

7:                                                ; preds = %3
  %8 = icmp slt i32 %2, 2
  br i1 %8, label %9, label %11

9:                                                ; preds = %7
  %.not67 = icmp ne i32 %2, 0
  %10 = zext i1 %.not67 to i32
  %spec.select77 = xor i32 %1, %10
  br label %103

11:                                               ; preds = %7
  %12 = icmp eq i32 %1, %2
  br i1 %12, label %103, label %13

13:                                               ; preds = %11
  %14 = xor i32 %2, %1
  %15 = icmp eq i32 %14, 1
  br i1 %15, label %103, label %16

16:                                               ; preds = %13
  %17 = getelementptr inbounds nuw i8, ptr %0, i64 24
  %18 = load i32, ptr %17, align 8, !tbaa !34
  %19 = and i32 %18, 255
  %20 = icmp eq i32 %19, 0
  br i1 %20, label %21, label %35

21:                                               ; preds = %16
  %22 = getelementptr i8, ptr %0, i64 100
  %.val70 = load i32, ptr %22, align 4, !tbaa !3
  %23 = shl nsw i32 %.val70, 1
  %24 = getelementptr inbounds nuw i8, ptr %0, i64 64
  %25 = load ptr, ptr %24, align 8, !tbaa !35
  %26 = getelementptr i8, ptr %25, i64 4
  %.val.i = load i32, ptr %26, align 4, !tbaa !3
  %27 = getelementptr inbounds nuw i8, ptr %0, i64 72
  %28 = load ptr, ptr %27, align 8, !tbaa !36
  %29 = getelementptr i8, ptr %28, i64 4
  %.val3.i = load i32, ptr %29, align 4, !tbaa !3
  %30 = add i32 %.val3.i, %.val.i
  %31 = xor i32 %30, -1
  %32 = add i32 %18, %31
  %33 = icmp slt i32 %23, %32
  br i1 %33, label %34, label %35

34:                                               ; preds = %21
  tail call void @Gia_ManHashResize(ptr noundef nonnull %0)
  br label %35

35:                                               ; preds = %34, %21, %16
  %spec.select = tail call i32 @llvm.umax.i32(i32 %1, i32 %2)
  %spec.select69 = tail call i32 @llvm.umin.i32(i32 %1, i32 %2)
  %spec.select78 = and i32 %spec.select, 2147483646
  %.158 = and i32 %spec.select69, 2147483646
  %.156 = and i32 %14, 1
  %36 = getelementptr i8, ptr %0, i64 100
  %.val.i72 = load i32, ptr %36, align 4, !tbaa !3
  %37 = lshr i32 %spec.select, 1
  %38 = mul nuw nsw i32 %37, 7937
  %39 = lshr i32 %spec.select69, 1
  %40 = mul nuw nsw i32 %39, 2971
  %41 = add nsw i32 %38, -2011
  %42 = add nuw i32 %41, %40
  %43 = urem i32 %42, %.val.i72
  %44 = getelementptr i8, ptr %0, i64 104
  %.val23.i = load ptr, ptr %44, align 8, !tbaa !10
  %45 = sext i32 %43 to i64
  %46 = getelementptr inbounds i32, ptr %.val23.i, i64 %45
  %47 = getelementptr inbounds nuw i8, ptr %0, i64 40
  %48 = load i32, ptr %46, align 4, !tbaa !11
  %.not30.i = icmp eq i32 %48, 0
  br i1 %.not30.i, label %Gia_ManHashFind.exit.thread, label %.lr.ph.i

.lr.ph.i:                                         ; preds = %35
  %49 = getelementptr i8, ptr %0, i64 32
  %.val25.i = load ptr, ptr %49, align 8, !tbaa !12
  %50 = getelementptr i8, ptr %0, i64 88
  br label %51

51:                                               ; preds = %81, %.lr.ph.i
  %.pr = phi i32 [ %48, %.lr.ph.i ], [ %83, %81 ]
  %52 = sext i32 %.pr to i64
  %53 = getelementptr inbounds %struct.Gia_Obj_t_, ptr %.val25.i, i64 %52
  %.val26.i = load i64, ptr %53, align 4
  %54 = trunc i64 %.val26.i to i32
  %55 = and i32 %54, 536870911
  %56 = sub nsw i32 %.pr, %55
  %57 = lshr i32 %54, 29
  %58 = and i32 %57, 1
  %59 = shl nsw i32 %56, 1
  %60 = or disjoint i32 %59, %58
  %61 = icmp eq i32 %60, %spec.select78
  br i1 %61, label %62, label %81

62:                                               ; preds = %51
  %63 = lshr i64 %.val26.i, 32
  %64 = trunc nuw i64 %63 to i32
  %65 = and i32 %64, 536870911
  %66 = sub nsw i32 %.pr, %65
  %67 = lshr i64 %.val26.i, 61
  %68 = trunc nuw nsw i64 %67 to i32
  %69 = and i32 %68, 1
  %70 = shl nsw i32 %66, 1
  %71 = or disjoint i32 %70, %69
  %72 = icmp eq i32 %71, %.158
  br i1 %72, label %73, label %81

73:                                               ; preds = %62
  %74 = load ptr, ptr %47, align 8, !tbaa !31
  %75 = icmp eq ptr %74, null
  br i1 %75, label %Gia_ManHashFind.exit, label %Gia_ObjFaninLit2p.exit.i

Gia_ObjFaninLit2p.exit.i:                         ; preds = %73
  %76 = shl nsw i64 %52, 2
  %77 = getelementptr inbounds i8, ptr %74, i64 %76
  %78 = load i32, ptr %77, align 4, !tbaa !11
  %79 = add i32 %78, 1
  %80 = icmp ult i32 %79, 2
  br i1 %80, label %Gia_ManHashFind.exit, label %81

81:                                               ; preds = %Gia_ObjFaninLit2p.exit.i, %62, %51
  %.val24.i = load ptr, ptr %50, align 8, !tbaa !10
  %82 = getelementptr inbounds i32, ptr %.val24.i, i64 %52
  %83 = load i32, ptr %82, align 4, !tbaa !11
  %.not.i = icmp eq i32 %83, 0
  br i1 %.not.i, label %Gia_ManHashFind.exit.thread.loopexit, label %51, !llvm.loop !32

Gia_ManHashFind.exit:                             ; preds = %Gia_ObjFaninLit2p.exit.i, %73
  %84 = getelementptr inbounds nuw i8, ptr %0, i64 752
  %85 = load i64, ptr %84, align 8, !tbaa !45
  %86 = add i64 %85, 1
  store i64 %86, ptr %84, align 8, !tbaa !45
  %87 = shl nsw i32 %.pr, 1
  %88 = or disjoint i32 %87, %.156
  br label %103

Gia_ManHashFind.exit.thread.loopexit:             ; preds = %81
  %89 = getelementptr inbounds i32, ptr %.val24.i, i64 %52
  br label %Gia_ManHashFind.exit.thread

Gia_ManHashFind.exit.thread:                      ; preds = %Gia_ManHashFind.exit.thread.loopexit, %35
  %.021.lcssa.i75 = phi ptr [ %46, %35 ], [ %89, %Gia_ManHashFind.exit.thread.loopexit ]
  %90 = getelementptr inbounds nuw i8, ptr %0, i64 760
  %91 = load i64, ptr %90, align 8, !tbaa !46
  %92 = add i64 %91, 1
  store i64 %92, ptr %90, align 8, !tbaa !46
  %93 = getelementptr inbounds nuw i8, ptr %0, i64 80
  %94 = getelementptr i8, ptr %0, i64 84
  %.val = load i32, ptr %94, align 4, !tbaa !3
  %.val71 = load i32, ptr %93, align 8, !tbaa !40
  %95 = icmp slt i32 %.val, %.val71
  %96 = tail call fastcc i32 @Gia_ManAppendXorReal(ptr noundef nonnull %0, i32 noundef %spec.select78, i32 noundef %.158)
  br i1 %95, label %99, label %97

97:                                               ; preds = %Gia_ManHashFind.exit.thread
  %98 = tail call fastcc ptr @Gia_ManHashFind(ptr noundef nonnull %0, i32 noundef %spec.select78, i32 noundef %.158, i32 noundef -1)
  br label %99

99:                                               ; preds = %Gia_ManHashFind.exit.thread, %97
  %.sink84 = phi ptr [ %98, %97 ], [ %.021.lcssa.i75, %Gia_ManHashFind.exit.thread ]
  %100 = ashr i32 %96, 1
  store i32 %100, ptr %.sink84, align 4, !tbaa !11
  %101 = and i32 %96, -2
  %102 = or disjoint i32 %101, %.156
  br label %103

103:                                              ; preds = %9, %5, %Gia_ManHashFind.exit, %99, %13, %11
  %.0 = phi i32 [ 0, %11 ], [ 1, %13 ], [ %88, %Gia_ManHashFind.exit ], [ %102, %99 ], [ %spec.select76, %5 ], [ %spec.select77, %9 ]
  ret i32 %.0
}